; ModuleID = 'source-C-CXX/25/910.c'
source_filename = "source-C-CXX/25/910.c"
target datalayout = "e-m:e-p270:32:32-p271:32:32-p272:64:64-i64:64-f80:128-n8:16:32:64-S128"
target triple = "x86_64-pc-linux-gnu"

; Function Attrs: nounwind sspstrong uwtable
define dso_local i32 @main() local_unnamed_addr #0 {
  %1 = alloca [100 x i8], align 16
  %2 = getelementptr inbounds [100 x i8], [100 x i8]* %1, i64 0, i64 0
  call void @llvm.lifetime.start.p0i8(i64 100, i8* nonnull %2) #5
  %3 = call i32 (i8*, ...) bitcast (i32 (...)* @gets to i32 (i8*, ...)*)(i8* nonnull %2) #5
  %4 = call i64 @strlen(i8* noundef nonnull %2) #6
  %5 = trunc i64 %4 to i32
  %6 = icmp sgt i32 %5, 0
  br i1 %6, label %7, label %28

7:                                                ; preds = %0
  %8 = and i64 %4, 4294967295
  br label %9

9:                                                ; preds = %7, %25
  %10 = phi i64 [ 0, %7 ], [ %26, %25 ]
  %11 = getelementptr inbounds [100 x i8], [100 x i8]* %1, i64 0, i64 %10
  %12 = load i8, i8* %11, align 1, !tbaa !5
  %13 = icmp eq i8 %12, 32
  br i1 %13, label %18, label %14

14:                                               ; preds = %9
  %15 = sext i8 %12 to i32
  %16 = call i32 @putchar(i32 %15)
  %17 = add nuw nsw i64 %10, 1
  br label %25

18:                                               ; preds = %9
  %19 = add nuw nsw i64 %10, 1
  %20 = getelementptr inbounds [100 x i8], [100 x i8]* %1, i64 0, i64 %19
  %21 = load i8, i8* %20, align 1, !tbaa !5
  %22 = icmp eq i8 %21, 32
  br i1 %22, label %25, label %23

23:                                               ; preds = %18
  %24 = call i32 @putchar(i32 32)
  br label %25

25:                                               ; preds = %14, %23, %18
  %26 = phi i64 [ %17, %14 ], [ %19, %23 ], [ %19, %18 ]
  %27 = icmp eq i64 %26, %8
  br i1 %27, label %28, label %9, !llvm.loop !8

28:                                               ; preds = %25, %0
  call void @llvm.lifetime.end.p0i8(i64 100, i8* nonnull %2) #5
  ret i32 0
}

; Function Attrs: argmemonly mustprogress nofree nosync nounwind willreturn
declare void @llvm.lifetime.start.p0i8(i64 immarg, i8* nocapture) #1

declare i32 @gets(...) local_unnamed_addr #2

; Function Attrs: argmemonly mustprogress nofree nounwind readonly willreturn
declare i64 @strlen(i8* nocapture) local_unnamed_addr #3

; Function Attrs: argmemonly mustprogress nofree nosync nounwind willreturn
declare void @llvm.lifetime.end.p0i8(i64 immarg, i8* nocapture) #1

; Function Attrs: nofree nounwind
declare noundef i32 @putchar(i32 noundef) local_unnamed_addr #4


!llvm.module.flags = !{!0, !1, !2, !3}
!llvm.ident = !{!4}

!0 = !{i32 1, !"wchar_size", i32 4}
!1 = !{i32 7, !"PIC Level", i32 2}
!2 = !{i32 7, !"PIE Level", i32 2}
!3 = !{i32 7, !"uwtable", i32 1}
!4 = !{!"clang version 13.0.0"}
!5 = !{!6, !6, i64 0}
!6 = !{!"omnipotent char", !7, i64 0}
!7 = !{!"Simple C/C++ TBAA"}
!8 = distinct !{!8, !9}
!9 = !{!"llvm.loop.mustprogress"}
